Certificate:
    Data:
        Version: 3 (0x2)
        Serial Number:
            59:91:b9:bc:6b:b1:9c:69:0b:93:32:45:cb:8e:65:24:3c:ba:7c:d8
        Signature Algorithm: sha256WithRSAEncryption
        Issuer: C=US, ST=CA, L=SanFrancisco, O=Fort-Funston, OU=changeme, CN=changeme/name=changeme/emailAddress=mail@host.domain
        Validity
            Not Before: May 17 18:38:12 2021 GMT
            Not After : May 17 18:38:12 2031 GMT
        Subject: C=US, ST=CA, L=SanFrancisco, O=Fort-Funston, OU=changeme, CN=changeme/name=changeme/emailAddress=mail@host.domain
        Subject Public Key Info:
            Public Key Algorithm: rsaEncryption
                RSA Public-Key: (2048 bit)
                Modulus:
                    00:c6:80:47:ff:05:90:4d:e6:e2:5d:b7:02:77:07:
                    65:ce:7d:48:83:c1:b2:68:ef:86:19:e1:5f:60:83:
                    e7:de:da:f3:6e:89:c1:47:72:7f:da:44:90:b2:de:
                    10:8b:eb:f9:8c:60:7a:4d:59:d3:fa:09:d5:aa:a3:
                    02:f3:a5:a5:04:de:9a:f9:f6:95:7b:7a:7f:fa:36:
                    21:07:8c:43:57:dd:c7:45:25:da:cb:72:5a:7c:d7:
                    d0:47:a9:0a:b9:0b:8c:99:e5:be:48:c8:b4:06:df:
                    a5:ee:66:93:0c:8b:f6:9d:08:ee:62:0b:21:2f:d7:
                    03:34:0b:2d:a1:af:bd:c0:78:16:d2:01:29:23:30:
                    66:3a:01:cd:0f:5a:62:53:b5:55:f8:2f:13:12:e7:
                    73:30:63:e3:31:a8:3c:b7:23:af:e6:8c:aa:67:ca:
                    93:c9:2c:f5:72:2e:a9:49:d7:40:11:48:9c:e3:59:
                    c1:5b:88:3b:71:08:d5:08:76:9a:11:cb:00:77:e6:
                    77:2a:d8:c0:06:01:5b:1f:e1:f0:19:d0:74:7f:37:
                    21:24:69:85:44:5f:ac:d1:fa:d3:f2:f7:9f:7b:a1:
                    69:40:8e:de:1d:ec:2c:da:0a:d5:0d:6d:bd:b4:af:
                    e6:4b:99:51:60:aa:ff:25:bc:1b:fa:c4:cb:ab:81:
                    99:97
                Exponent: 65537 (0x10001)
        X509v3 extensions:
            X509v3 Subject Key Identifier: 
                86:64:86:FE:6F:1A:DA:00:A9:63:BB:0B:9E:2F:A5:17:2E:CB:30:7D
            X509v3 Authority Key Identifier: 
                keyid:86:64:86:FE:6F:1A:DA:00:A9:63:BB:0B:9E:2F:A5:17:2E:CB:30:7D

            X509v3 Basic Constraints: critical
                CA:TRUE
    Signature Algorithm: sha256WithRSAEncryption
         60:2d:d9:9c:1c:45:08:f3:3a:c4:42:78:9f:9d:22:87:07:0f:
         bb:da:e7:ab:ee:d1:4d:49:a0:a4:b4:e5:fc:e9:84:7e:2e:ab:
         6c:1b:36:30:37:cf:94:1a:d5:1a:b9:f5:31:47:ba:6f:7a:67:
         67:d7:94:3e:68:c0:80:30:f0:27:b6:ae:e2:47:2e:15:ea:a9:
         b6:a1:5a:3c:70:d0:ba:d6:44:b3:16:5a:26:75:46:2c:16:ab:
         6b:8b:c2:21:7d:9d:45:46:f0:ca:14:fe:35:68:2a:8d:56:fc:
         7b:8c:12:58:ed:80:61:10:c8:23:7e:ba:1e:7e:3c:b5:97:e0:
         d6:cf:a8:78:3a:2e:6d:1a:4d:d7:7d:5d:b8:00:91:ab:37:7b:
         31:ce:86:7c:36:33:aa:c3:d2:d7:82:09:b5:c9:fb:46:b8:64:
         2a:b8:24:67:59:db:f8:b7:f0:d0:5f:b1:1f:19:28:ca:24:4a:
         b5:42:b6:e8:68:36:b4:5a:a0:05:fb:1e:b3:6b:b5:58:7b:79:
         a1:0f:8b:b6:c2:87:b0:4a:8d:83:95:56:af:9e:73:1e:a1:ed:
         4b:83:fe:ce:9d:70:80:40:c0:b4:f9:02:8d:df:cc:99:1f:06:
         4d:c4:96:db:61:a2:93:0c:d0:eb:e7:7e:b2:5f:a6:11:86:cb:
         12:a8:7e:18
-----BEGIN CERTIFICATE-----
MIIEJzCCAw+gAwIBAgIUWZG5vGuxnGkLkzJFy45lJDy6fNgwDQYJKoZIhvcNAQEL
BQAwgaIxCzAJBgNVBAYTAlVTMQswCQYDVQQIDAJDQTEVMBMGA1UEBwwMU2FuRnJh
bmNpc2NvMRUwEwYDVQQKDAxGb3J0LUZ1bnN0b24xETAPBgNVBAsMCGNoYW5nZW1l
MREwDwYDVQQDDAhjaGFuZ2VtZTERMA8GA1UEKQwIY2hhbmdlbWUxHzAdBgkqhkiG
9w0BCQEWEG1haWxAaG9zdC5kb21haW4wHhcNMjEwNTE3MTgzODEyWhcNMzEwNTE3
MTgzODEyWjCBojELMAkGA1UEBhMCVVMxCzAJBgNVBAgMAkNBMRUwEwYDVQQHDAxT
YW5GcmFuY2lzY28xFTATBgNVBAoMDEZvcnQtRnVuc3RvbjERMA8GA1UECwwIY2hh
bmdlbWUxETAPBgNVBAMMCGNoYW5nZW1lMREwDwYDVQQpDAhjaGFuZ2VtZTEfMB0G
CSqGSIb3DQEJARYQbWFpbEBob3N0LmRvbWFpbjCCASIwDQYJKoZIhvcNAQEBBQAD
ggEPADCCAQoCggEBAMaAR/8FkE3m4l23AncHZc59SIPBsmjvhhnhX2CD597a826J
wUdyf9pEkLLeEIvr+Yxgek1Z0/oJ1aqjAvOlpQTemvn2lXt6f/o2IQeMQ1fdx0Ul
2styWnzX0EepCrkLjJnlvkjItAbfpe5mkwyL9p0I7mILIS/XAzQLLaGvvcB4FtIB
KSMwZjoBzQ9aYlO1VfgvExLnczBj4zGoPLcjr+aMqmfKk8ks9XIuqUnXQBFInONZ
wVuIO3EI1Qh2mhHLAHfmdyrYwAYBWx/h8BnQdH83ISRphURfrNH60/L3n3uhaUCO
3h3sLNoK1Q1tvbSv5kuZUWCq/yW8G/rEy6uBmZcCAwEAAaNTMFEwHQYDVR0OBBYE
FIZkhv5vGtoAqWO7C54vpRcuyzB9MB8GA1UdIwQYMBaAFIZkhv5vGtoAqWO7C54v
pRcuyzB9MA8GA1UdEwEB/wQFMAMBAf8wDQYJKoZIhvcNAQELBQADggEBAGAt2Zwc
RQjzOsRCeJ+dIocHD7va56vu0U1JoKS05fzphH4uq2wbNjA3z5Qa1Rq59TFHum96
Z2fXlD5owIAw8Ce2ruJHLhXqqbahWjxw0LrWRLMWWiZ1RiwWq2uLwiF9nUVG8MoU
/jVoKo1W/HuMEljtgGEQyCN+uh5+PLWX4NbPqHg6Lm0aTdd9XbgAkas3ezHOhnw2
M6rD0teCCbXJ+0a4ZCq4JGdZ2/i38NBfsR8ZKMokSrVCtuhoNrRaoAX7HrNrtVh7
eaEPi7bCh7BKjYOVVq+ecx6h7UuD/s6dcIBAwLT5Ao3fzJkfBk3EltthopMM0Ovn
frJfphGGyxKofhg=
-----END CERTIFICATE-----
