Certificate:
    Data:
        Version: 3 (0x2)
        Serial Number: 3 (0x3)
        Signature Algorithm: sha256WithRSAEncryption
        Issuer: C=US, ST=CA, L=SanFrancisco, O=Fort-Funston, OU=changeme, CN=changeme/name=changeme/emailAddress=mail@host.domain
        Validity
            Not Before: May 17 18:38:12 2021 GMT
            Not After : May 17 18:38:12 2031 GMT
        Subject: C=US, ST=CA, L=SanFrancisco, O=Fort-Funston, OU=changeme, CN=client/name=changeme/emailAddress=mail@host.domain
        Subject Public Key Info:
            Public Key Algorithm: rsaEncryption
                RSA Public-Key: (2048 bit)
                Modulus:
                    00:d0:db:5a:2d:11:66:83:da:80:a3:1d:d1:e0:d2:
                    2e:d6:4e:0c:29:8a:b5:05:ef:a4:50:46:af:9e:84:
                    98:6c:a6:a8:92:09:43:28:8a:8c:6c:a7:59:8a:bc:
                    a3:8a:5d:5e:c8:6b:b4:fc:31:87:4f:99:d9:a1:5a:
                    a7:2b:58:ae:46:08:57:3c:a1:67:b9:c9:f0:e1:40:
                    54:1f:45:d7:7e:df:db:94:6e:99:cd:88:c4:86:72:
                    dd:5e:0f:ec:06:8e:fb:53:65:98:72:12:2a:1a:5e:
                    5b:dd:a1:9b:bd:21:36:10:19:49:40:8f:1e:cb:e0:
                    a3:cf:0a:97:c4:8e:ab:01:a5:6a:59:23:df:ea:4e:
                    db:2d:d7:51:7e:be:6d:6f:55:e1:42:82:1d:3c:e3:
                    ad:6d:31:b3:c0:2b:fa:44:5c:7b:27:18:dd:f3:6c:
                    41:fb:95:81:bc:8e:94:ee:de:65:29:b7:87:a2:8b:
                    39:9a:72:73:21:ae:33:4e:69:96:9c:e2:ca:66:b0:
                    a1:43:64:d8:fe:26:8c:7a:99:a5:8b:88:50:4f:c1:
                    11:48:ea:7f:6f:fa:22:b2:10:ad:a6:6f:0e:43:e6:
                    0e:20:88:f2:28:ed:55:0c:b2:6f:eb:04:db:9a:b2:
                    48:75:26:e0:86:20:dc:d8:98:0b:ad:01:02:1e:40:
                    3a:c7
                Exponent: 65537 (0x10001)
        X509v3 extensions:
            X509v3 Basic Constraints: 
                CA:FALSE
            X509v3 Subject Key Identifier: 
                FD:BD:6D:C3:BF:B6:68:9C:C0:EF:87:49:34:76:50:78:4E:62:B2:4D
            X509v3 Authority Key Identifier: 
                keyid:86:64:86:FE:6F:1A:DA:00:A9:63:BB:0B:9E:2F:A5:17:2E:CB:30:7D

            X509v3 Extended Key Usage: 
                TLS Web Client Authentication
            X509v3 Subject Alternative Name: 
                DNS:*, DNS:localhost, IP Address:127.0.0.1, IP Address:0:0:0:0:0:0:0:1
    Signature Algorithm: sha256WithRSAEncryption
         40:1a:52:f8:a4:e2:e2:f0:85:99:55:58:38:b6:d3:0c:85:e7:
         0e:f7:15:1f:95:ce:d7:50:5e:6b:cd:94:3d:fe:a3:49:5c:b5:
         e3:2a:13:9b:d3:77:24:dd:4e:51:c5:e4:c8:1b:54:ee:46:db:
         1b:c6:43:89:21:65:c0:06:c9:4e:ed:04:1a:0d:5f:c9:23:f8:
         eb:6e:90:c8:ef:75:9b:69:a7:66:50:42:ec:34:62:98:52:49:
         f4:2c:a4:cf:c3:47:37:ca:49:6b:87:bd:0f:1b:ce:c2:c4:3e:
         f0:3d:c1:70:8f:df:90:c9:55:4b:72:59:61:4d:43:c3:23:cc:
         8d:f3:37:82:12:fa:f3:cf:4a:35:6e:3e:ea:7c:6c:0b:0c:ad:
         94:62:ba:96:44:2a:90:67:5d:4e:39:c8:ec:be:fb:13:f3:7d:
         cb:14:66:77:81:ac:f0:cf:15:d1:7c:b0:c1:d6:a9:d6:ca:5e:
         9c:d8:d5:18:d1:9c:6a:2c:78:0b:05:37:d8:db:e6:9c:eb:36:
         7f:2d:c7:7a:8b:b0:66:10:53:15:21:7d:d5:93:96:67:69:e4:
         7b:06:a9:14:14:ce:45:21:4c:0a:3e:4a:ab:2c:7f:c5:65:f4:
         35:8b:83:aa:26:e4:ef:d1:61:97:bf:34:43:d9:c2:ad:a7:a5:
         f6:c9:06:ae
-----BEGIN CERTIFICATE-----
MIIEVDCCAzygAwIBAgIBAzANBgkqhkiG9w0BAQsFADCBojELMAkGA1UEBhMCVVMx
CzAJBgNVBAgMAkNBMRUwEwYDVQQHDAxTYW5GcmFuY2lzY28xFTATBgNVBAoMDEZv
cnQtRnVuc3RvbjERMA8GA1UECwwIY2hhbmdlbWUxETAPBgNVBAMMCGNoYW5nZW1l
MREwDwYDVQQpDAhjaGFuZ2VtZTEfMB0GCSqGSIb3DQEJARYQbWFpbEBob3N0LmRv
bWFpbjAeFw0yMTA1MTcxODM4MTJaFw0zMTA1MTcxODM4MTJaMIGgMQswCQYDVQQG
EwJVUzELMAkGA1UECAwCQ0ExFTATBgNVBAcMDFNhbkZyYW5jaXNjbzEVMBMGA1UE
CgwMRm9ydC1GdW5zdG9uMREwDwYDVQQLDAhjaGFuZ2VtZTEPMA0GA1UEAwwGY2xp
ZW50MREwDwYDVQQpDAhjaGFuZ2VtZTEfMB0GCSqGSIb3DQEJARYQbWFpbEBob3N0
LmRvbWFpbjCCASIwDQYJKoZIhvcNAQEBBQADggEPADCCAQoCggEBANDbWi0RZoPa
gKMd0eDSLtZODCmKtQXvpFBGr56EmGymqJIJQyiKjGynWYq8o4pdXshrtPwxh0+Z
2aFapytYrkYIVzyhZ7nJ8OFAVB9F137f25Rumc2IxIZy3V4P7AaO+1NlmHISKhpe
W92hm70hNhAZSUCPHsvgo88Kl8SOqwGlalkj3+pO2y3XUX6+bW9V4UKCHTzjrW0x
s8Ar+kRceycY3fNsQfuVgbyOlO7eZSm3h6KLOZpycyGuM05plpziymawoUNk2P4m
jHqZpYuIUE/BEUjqf2/6IrIQraZvDkPmDiCI8ijtVQyyb+sE25qySHUm4IYg3NiY
C60BAh5AOscCAwEAAaOBlDCBkTAJBgNVHRMEAjAAMB0GA1UdDgQWBBT9vW3Dv7Zo
nMDvh0k0dlB4TmKyTTAfBgNVHSMEGDAWgBSGZIb+bxraAKljuwueL6UXLsswfTAT
BgNVHSUEDDAKBggrBgEFBQcDAjAvBgNVHREEKDAmggEqgglsb2NhbGhvc3SHBH8A
AAGHEAAAAAAAAAAAAAAAAAAAAAEwDQYJKoZIhvcNAQELBQADggEBAEAaUvik4uLw
hZlVWDi20wyF5w73FR+VztdQXmvNlD3+o0lcteMqE5vTdyTdTlHF5MgbVO5G2xvG
Q4khZcAGyU7tBBoNX8kj+OtukMjvdZtpp2ZQQuw0YphSSfQspM/DRzfKSWuHvQ8b
zsLEPvA9wXCP35DJVUtyWWFNQ8MjzI3zN4IS+vPPSjVuPup8bAsMrZRiupZEKpBn
XU45yOy++xPzfcsUZneBrPDPFdF8sMHWqdbKXpzY1RjRnGoseAsFN9jb5pzrNn8t
x3qLsGYQUxUhfdWTlmdp5HsGqRQUzkUhTAo+Sqssf8Vl9DWLg6om5O/RYZe/NEPZ
wq2npfbJBq4=
-----END CERTIFICATE-----
