Certificate:
    Data:
        Version: 3 (0x2)
        Serial Number: 2 (0x2)
        Signature Algorithm: sha256WithRSAEncryption
        Issuer: C=US, ST=CA, L=SanFrancisco, O=Fort-Funston, OU=changeme, CN=changeme/name=changeme/emailAddress=mail@host.domain
        Validity
            Not Before: May 17 18:38:12 2021 GMT
            Not After : May 17 18:38:12 2031 GMT
        Subject: C=US, ST=CA, L=SanFrancisco, O=Fort-Funston, OU=changeme, CN=*/name=changeme/emailAddress=mail@host.domain
        Subject Public Key Info:
            Public Key Algorithm: rsaEncryption
                RSA Public-Key: (2048 bit)
                Modulus:
                    00:f2:23:b2:a3:22:03:a2:0b:cd:71:de:19:29:14:
                    92:7f:e8:9d:30:7f:e3:0e:13:da:de:f9:9b:5a:65:
                    ec:22:c5:ce:73:e7:2f:c2:ae:c3:04:eb:72:43:77:
                    87:46:d2:63:e2:3a:08:85:9f:58:1f:fc:f3:82:4f:
                    5e:4e:5a:92:0f:ac:a1:16:a0:7e:92:a3:8e:aa:93:
                    fd:4c:e0:ed:f0:96:09:43:b8:e6:ec:72:1b:aa:aa:
                    76:3f:79:00:89:26:c4:2f:ff:99:01:95:f2:8e:39:
                    a0:4f:13:63:bf:6b:6c:40:0f:7c:ed:ee:a8:2b:90:
                    11:94:d8:a9:15:c1:91:40:89:13:eb:49:ec:0d:fe:
                    4f:cd:41:8f:a6:e0:ab:15:db:45:86:28:23:79:98:
                    42:bb:52:a8:96:c3:aa:91:df:5a:67:24:09:4b:2e:
                    ce:9a:ba:fc:97:4e:89:5e:c3:18:08:4e:31:e4:1c:
                    b6:65:c2:7e:93:ef:52:e7:92:ee:25:88:07:4a:d5:
                    3d:86:44:31:07:e5:1a:f5:63:dc:c3:11:b5:4d:10:
                    a0:9c:6a:99:7a:d9:b4:22:07:97:e2:f4:0e:5a:10:
                    bc:90:09:c1:0f:5a:65:e8:f3:9c:e0:e2:04:29:24:
                    ee:a7:ee:aa:fa:02:7f:80:ac:9d:ca:9f:0f:8d:f5:
                    c5:b3
                Exponent: 65537 (0x10001)
        X509v3 extensions:
            X509v3 Basic Constraints: 
                CA:FALSE
            X509v3 Subject Key Identifier: 
                82:DD:B4:72:E4:DB:12:4E:9A:3B:45:75:F0:1B:4E:7F:43:2C:10:BF
            X509v3 Authority Key Identifier: 
                keyid:86:64:86:FE:6F:1A:DA:00:A9:63:BB:0B:9E:2F:A5:17:2E:CB:30:7D

            X509v3 Extended Key Usage: 
                TLS Web Server Authentication
            X509v3 Subject Alternative Name: 
                DNS:*, DNS:localhost, IP Address:127.0.0.1, IP Address:0:0:0:0:0:0:0:1
    Signature Algorithm: sha256WithRSAEncryption
         6a:9f:4d:9d:7b:82:20:58:06:ab:a2:6e:36:63:e6:b2:ec:12:
         f9:b2:e6:d3:3a:8c:44:78:1d:fd:51:7f:32:06:77:ea:b0:c6:
         3d:9d:f1:20:c5:5d:44:20:ac:bf:d4:ac:6e:b8:7d:f3:74:11:
         15:af:47:39:ee:26:b9:d7:b8:76:e1:f1:3b:fc:5e:0f:46:f9:
         4c:95:95:b3:dd:2b:a0:38:32:dd:48:6c:cc:73:b6:a4:73:42:
         9d:f2:1a:4a:d7:a0:3f:9a:ea:48:ee:e8:ae:da:50:a7:92:39:
         ef:d0:36:67:86:ea:3f:54:72:d7:6e:c5:77:5e:ef:1c:f9:f7:
         6b:59:d5:80:47:e0:f9:80:b5:d3:42:82:2f:07:8a:2a:45:7c:
         7f:d6:69:1e:41:24:d2:44:aa:c1:74:48:17:a9:a2:2b:18:6c:
         e7:30:c4:6a:24:ed:b8:c6:03:36:6f:9a:23:cb:5a:53:f3:93:
         94:6a:3b:67:ff:25:70:d5:04:36:d5:5d:84:4d:51:f3:43:ff:
         95:25:4f:2c:8e:45:d1:4c:87:ab:06:5e:39:93:be:77:ed:a3:
         b1:ac:35:c9:4d:75:c2:80:d5:7a:78:4a:6e:c6:90:29:d8:72:
         83:d7:44:e2:5e:f9:aa:e6:a3:73:d3:8b:3a:de:74:64:64:6b:
         e8:b0:3f:01
-----BEGIN CERTIFICATE-----
MIIETzCCAzegAwIBAgIBAjANBgkqhkiG9w0BAQsFADCBojELMAkGA1UEBhMCVVMx
CzAJBgNVBAgMAkNBMRUwEwYDVQQHDAxTYW5GcmFuY2lzY28xFTATBgNVBAoMDEZv
cnQtRnVuc3RvbjERMA8GA1UECwwIY2hhbmdlbWUxETAPBgNVBAMMCGNoYW5nZW1l
MREwDwYDVQQpDAhjaGFuZ2VtZTEfMB0GCSqGSIb3DQEJARYQbWFpbEBob3N0LmRv
bWFpbjAeFw0yMTA1MTcxODM4MTJaFw0zMTA1MTcxODM4MTJaMIGbMQswCQYDVQQG
EwJVUzELMAkGA1UECAwCQ0ExFTATBgNVBAcMDFNhbkZyYW5jaXNjbzEVMBMGA1UE
CgwMRm9ydC1GdW5zdG9uMREwDwYDVQQLDAhjaGFuZ2VtZTEKMAgGA1UEAwwBKjER
MA8GA1UEKQwIY2hhbmdlbWUxHzAdBgkqhkiG9w0BCQEWEG1haWxAaG9zdC5kb21h
aW4wggEiMA0GCSqGSIb3DQEBAQUAA4IBDwAwggEKAoIBAQDyI7KjIgOiC81x3hkp
FJJ/6J0wf+MOE9re+ZtaZewixc5z5y/CrsME63JDd4dG0mPiOgiFn1gf/POCT15O
WpIPrKEWoH6So46qk/1M4O3wlglDuObschuqqnY/eQCJJsQv/5kBlfKOOaBPE2O/
a2xAD3zt7qgrkBGU2KkVwZFAiRPrSewN/k/NQY+m4KsV20WGKCN5mEK7UqiWw6qR
31pnJAlLLs6auvyXTolewxgITjHkHLZlwn6T71Lnku4liAdK1T2GRDEH5Rr1Y9zD
EbVNEKCcapl62bQiB5fi9A5aELyQCcEPWmXo85zg4gQpJO6n7qr6An+ArJ3Knw+N
9cWzAgMBAAGjgZQwgZEwCQYDVR0TBAIwADAdBgNVHQ4EFgQUgt20cuTbEk6aO0V1
8BtOf0MsEL8wHwYDVR0jBBgwFoAUhmSG/m8a2gCpY7sLni+lFy7LMH0wEwYDVR0l
BAwwCgYIKwYBBQUHAwEwLwYDVR0RBCgwJoIBKoIJbG9jYWxob3N0hwR/AAABhxAA
AAAAAAAAAAAAAAAAAAABMA0GCSqGSIb3DQEBCwUAA4IBAQBqn02de4IgWAarom42
Y+ay7BL5subTOoxEeB39UX8yBnfqsMY9nfEgxV1EIKy/1KxuuH3zdBEVr0c57ia5
17h24fE7/F4PRvlMlZWz3SugODLdSGzMc7akc0Kd8hpK16A/mupI7uiu2lCnkjnv
0DZnhuo/VHLXbsV3Xu8c+fdrWdWAR+D5gLXTQoIvB4oqRXx/1mkeQSTSRKrBdEgX
qaIrGGznMMRqJO24xgM2b5ojy1pT85OUajtn/yVw1QQ21V2ETVHzQ/+VJU8sjkXR
TIerBl45k7537aOxrDXJTXXCgNV6eEpuxpAp2HKD10TiXvmq5qNz04s63nRkZGvo
sD8B
-----END CERTIFICATE-----
